target datalayout = "e-m:e-p270:32:32-p271:32:32-p272:64:64-i64:64-i128:128-f80:128-n8:16:32:64-S128"
target triple = "x86_64-pc-linux-gnu"

@.str.5 = private unnamed_addr constant [10 x i8] c"Empty set\00", align 1
@.str.6 = private unnamed_addr constant [8 x i8] c"(%d %d)\00", align 1
@.str.7 = private unnamed_addr constant [2 x i8] c"\0A\00", align 1

; Function Attrs: nounwind uwtable
define void @Abc_ZddCombPrint(ptr noundef %0, i32 noundef %1) #0 {
  %3 = alloca ptr, align 8
  %4 = alloca i32, align 4
  %5 = alloca i32, align 4
  store ptr %0, ptr %3, align 8, !tbaa !8
  store i32 %1, ptr %4, align 4, !tbaa !10
  call void @llvm.lifetime.start.p0(i64 4, ptr %5) #12
  %6 = load i32, ptr %4, align 4, !tbaa !10
  %7 = icmp eq i32 %6, 0
  br i1 %7, label %8, label %10

8:                                                ; preds = %2
  %9 = call i32 (ptr, ...) @printf(ptr noundef @.str.5)
  br label %10

10:                                               ; preds = %8, %2
  store i32 0, ptr %5, align 4, !tbaa !10
  br label %11

11:                                               ; preds = %29, %10
  %12 = load i32, ptr %5, align 4, !tbaa !10
  %13 = load i32, ptr %4, align 4, !tbaa !10
  %14 = icmp slt i32 %12, %13
  br i1 %14, label %15, label %32

15:                                               ; preds = %11
  %16 = load ptr, ptr %3, align 8, !tbaa !8
  %17 = load i32, ptr %5, align 4, !tbaa !10
  %18 = sext i32 %17 to i64
  %19 = getelementptr inbounds i32, ptr %16, i64 %18
  %20 = load i32, ptr %19, align 4, !tbaa !10
  %21 = ashr i32 %20, 16
  %22 = load ptr, ptr %3, align 8, !tbaa !8
  %23 = load i32, ptr %5, align 4, !tbaa !10
  %24 = sext i32 %23 to i64
  %25 = getelementptr inbounds i32, ptr %22, i64 %24
  %26 = load i32, ptr %25, align 4, !tbaa !10
  %27 = and i32 %26, 65535
  %28 = call i32 (ptr, ...) @printf(ptr noundef @.str.6, i32 noundef %21, i32 noundef %27)
  br label %29

29:                                               ; preds = %15
  %30 = load i32, ptr %5, align 4, !tbaa !10
  %31 = add nsw i32 %30, 1
  store i32 %31, ptr %5, align 4, !tbaa !10
  br label %11, !llvm.loop !61

32:                                               ; preds = %11
  %33 = call i32 (ptr, ...) @printf(ptr noundef @.str.7)
  call void @llvm.lifetime.end.p0(i64 4, ptr %5) #12
  ret void
}